target datalayout = "e-m:e-p270:32:32-p271:32:32-p272:64:64-i64:64-i128:128-f80:128-n8:16:32:64-S128"
target triple = "x86_64-pc-linux-gnu"

@.str = private unnamed_addr constant [33 x i8] c"../openssl/crypto/cmp/cmp_util.c\00", align 1
@__func__.ossl_cmp_asn1_octet_string_set1 = private unnamed_addr constant [32 x i8] c"ossl_cmp_asn1_octet_string_set1\00", align 1

; Function Attrs: nounwind uwtable
define i32 @ossl_cmp_asn1_octet_string_set1(ptr noundef %0, ptr noundef %1) #0 {
  %3 = alloca i32, align 4
  %4 = alloca ptr, align 8
  %5 = alloca ptr, align 8
  %6 = alloca ptr, align 8
  %7 = alloca i32, align 4
  store ptr %0, ptr %4, align 8, !tbaa !35
  store ptr %1, ptr %5, align 8, !tbaa !33
  call void @llvm.lifetime.start.p0(i64 8, ptr %6) #7
  %8 = load ptr, ptr %4, align 8, !tbaa !35
  %9 = icmp eq ptr %8, null
  br i1 %9, label %10, label %11

10:                                               ; preds = %2
  call void @ERR_new()
  call void @ERR_set_debug(ptr noundef @.str, i32 noundef 248, ptr noundef @__func__.ossl_cmp_asn1_octet_string_set1)
  call void (i32, i32, ptr, ...) @ERR_set_error(i32 noundef 58, i32 noundef 103, ptr noundef null)
  store i32 0, ptr %3, align 4
  store i32 1, ptr %7, align 4
  br label %32

11:                                               ; preds = %2
  %12 = load ptr, ptr %4, align 8, !tbaa !35
  %13 = load ptr, ptr %12, align 8, !tbaa !33
  %14 = load ptr, ptr %5, align 8, !tbaa !33
  %15 = icmp eq ptr %13, %14
  br i1 %15, label %16, label %17

16:                                               ; preds = %11
  store i32 1, ptr %3, align 4
  store i32 1, ptr %7, align 4
  br label %32

17:                                               ; preds = %11
  %18 = load ptr, ptr %5, align 8, !tbaa !33
  %19 = icmp ne ptr %18, null
  br i1 %19, label %20, label %26

20:                                               ; preds = %17
  %21 = load ptr, ptr %5, align 8, !tbaa !33
  %22 = call ptr @ASN1_OCTET_STRING_dup(ptr noundef %21)
  store ptr %22, ptr %6, align 8, !tbaa !33
  %23 = icmp eq ptr %22, null
  br i1 %23, label %24, label %25

24:                                               ; preds = %20
  store i32 0, ptr %3, align 4
  store i32 1, ptr %7, align 4
  br label %32

25:                                               ; preds = %20
  br label %27

26:                                               ; preds = %17
  store ptr null, ptr %6, align 8, !tbaa !33
  br label %27

27:                                               ; preds = %26, %25
  %28 = load ptr, ptr %4, align 8, !tbaa !35
  %29 = load ptr, ptr %28, align 8, !tbaa !33
  call void @ASN1_OCTET_STRING_free(ptr noundef %29)
  %30 = load ptr, ptr %6, align 8, !tbaa !33
  %31 = load ptr, ptr %4, align 8, !tbaa !35
  store ptr %30, ptr %31, align 8, !tbaa !33
  store i32 1, ptr %3, align 4
  store i32 1, ptr %7, align 4
  br label %32

32:                                               ; preds = %27, %24, %16, %10
  call void @llvm.lifetime.end.p0(i64 8, ptr %6) #7
  %33 = load i32, ptr %3, align 4
  ret i32 %33
}