; Function Attrs: nounwind uwtable
define range(i32 0, 2) i32 @ossl_cmp_asn1_octet_string_set1(ptr noundef captures(address_is_null) %0, ptr noundef %1) local_unnamed_addr #1 {
  %3 = icmp eq ptr %0, null
  br i1 %3, label %4, label %5

4:                                                ; preds = %2
  tail call void @ERR_new() #7
  tail call void @ERR_set_debug(ptr noundef nonnull @.str, i32 noundef 248, ptr noundef nonnull @__func__.ossl_cmp_asn1_octet_string_set1) #7
  tail call void (i32, i32, ptr, ...) @ERR_set_error(i32 noundef 58, i32 noundef 103, ptr noundef null) #7
  br label %14

5:                                                ; preds = %2
  %6 = load ptr, ptr %0, align 8, !tbaa !16
  %7 = icmp eq ptr %6, %1
  br i1 %7, label %14, label %8

8:                                                ; preds = %5
  %.not = icmp eq ptr %1, null
  br i1 %.not, label %12, label %9

9:                                                ; preds = %8
  %10 = tail call ptr @ASN1_OCTET_STRING_dup(ptr noundef nonnull %1) #7
  %11 = icmp eq ptr %10, null
  br i1 %11, label %14, label %._crit_edge

._crit_edge:                                      ; preds = %9
  %.pre = load ptr, ptr %0, align 8, !tbaa !16
  br label %12

12:                                               ; preds = %._crit_edge, %8
  %13 = phi ptr [ %.pre, %._crit_edge ], [ %6, %8 ]
  %.0 = phi ptr [ %10, %._crit_edge ], [ null, %8 ]
  tail call void @ASN1_OCTET_STRING_free(ptr noundef %13) #7
  store ptr %.0, ptr %0, align 8, !tbaa !16
  br label %14

14:                                               ; preds = %9, %5, %12, %4
  %.08 = phi i32 [ 0, %4 ], [ 1, %12 ], [ 1, %5 ], [ 0, %9 ]
  ret i32 %.08
}